target datalayout = "e-m:e-p270:32:32-p271:32:32-p272:64:64-i64:64-i128:128-f80:128-n8:16:32:64-S128"
target triple = "x86_64-pc-linux-gnu"

; Function Attrs: alwaysinline nounwind willreturn memory(none) uwtable
define internal i32 @av_clip_c(i32 noundef %0, i32 noundef %1, i32 noundef %2) #6 {
  %4 = alloca i32, align 4
  %5 = alloca i32, align 4
  %6 = alloca i32, align 4
  %7 = alloca i32, align 4
  store i32 %0, ptr %5, align 4, !tbaa !29
  store i32 %1, ptr %6, align 4, !tbaa !29
  store i32 %2, ptr %7, align 4, !tbaa !29
  %8 = load i32, ptr %5, align 4, !tbaa !29
  %9 = load i32, ptr %6, align 4, !tbaa !29
  %10 = icmp slt i32 %8, %9
  br i1 %10, label %11, label %13

11:                                               ; preds = %3
  %12 = load i32, ptr %6, align 4, !tbaa !29
  store i32 %12, ptr %4, align 4
  br label %21

13:                                               ; preds = %3
  %14 = load i32, ptr %5, align 4, !tbaa !29
  %15 = load i32, ptr %7, align 4, !tbaa !29
  %16 = icmp sgt i32 %14, %15
  br i1 %16, label %17, label %19

17:                                               ; preds = %13
  %18 = load i32, ptr %7, align 4, !tbaa !29
  store i32 %18, ptr %4, align 4
  br label %21

19:                                               ; preds = %13
  %20 = load i32, ptr %5, align 4, !tbaa !29
  store i32 %20, ptr %4, align 4
  br label %21

21:                                               ; preds = %19, %17, %11
  %22 = load i32, ptr %4, align 4
  ret i32 %22
}

; Function Attrs: nounwind uwtable
define internal void @limiter16(ptr noundef %0, ptr noundef %1, i64 noundef %2, i64 noundef %3, i32 noundef %4, i32 noundef %5, i32 noundef %6, i32 noundef %7) #1 {
  %9 = alloca ptr, align 8
  %10 = alloca ptr, align 8
  %11 = alloca i64, align 8
  %12 = alloca i64, align 8
  %13 = alloca i32, align 4
  %14 = alloca i32, align 4
  %15 = alloca i32, align 4
  %16 = alloca i32, align 4
  %17 = alloca ptr, align 8
  %18 = alloca ptr, align 8
  %19 = alloca i32, align 4
  %20 = alloca i32, align 4
  %21 = alloca i32, align 4
  store ptr %0, ptr %9, align 8, !tbaa !28
  store ptr %1, ptr %10, align 8, !tbaa !28
  store i64 %2, ptr %11, align 8, !tbaa !66
  store i64 %3, ptr %12, align 8, !tbaa !66
  store i32 %4, ptr %13, align 4, !tbaa !29
  store i32 %5, ptr %14, align 4, !tbaa !29
  store i32 %6, ptr %15, align 4, !tbaa !29
  store i32 %7, ptr %16, align 4, !tbaa !29
  call void @llvm.lifetime.start.p0(i64 8, ptr %17) #7
  %22 = load ptr, ptr %9, align 8, !tbaa !28
  store ptr %22, ptr %17, align 8, !tbaa !70
  call void @llvm.lifetime.start.p0(i64 8, ptr %18) #7
  %23 = load ptr, ptr %10, align 8, !tbaa !28
  store ptr %23, ptr %18, align 8, !tbaa !70
  %24 = load i64, ptr %12, align 8, !tbaa !66
  %25 = udiv i64 %24, 2
  store i64 %25, ptr %12, align 8, !tbaa !66
  %26 = load i64, ptr %11, align 8, !tbaa !66
  %27 = udiv i64 %26, 2
  store i64 %27, ptr %11, align 8, !tbaa !66
  call void @llvm.lifetime.start.p0(i64 4, ptr %19) #7
  store i32 0, ptr %19, align 4, !tbaa !29
  br label %28

28:                                               ; preds = %64, %8
  %29 = load i32, ptr %19, align 4, !tbaa !29
  %30 = load i32, ptr %14, align 4, !tbaa !29
  %31 = icmp slt i32 %29, %30
  br i1 %31, label %33, label %32

32:                                               ; preds = %28
  store i32 2, ptr %20, align 4
  call void @llvm.lifetime.end.p0(i64 4, ptr %19) #7
  br label %67

33:                                               ; preds = %28
  call void @llvm.lifetime.start.p0(i64 4, ptr %21) #7
  store i32 0, ptr %21, align 4, !tbaa !29
  br label %34

34:                                               ; preds = %54, %33
  %35 = load i32, ptr %21, align 4, !tbaa !29
  %36 = load i32, ptr %13, align 4, !tbaa !29
  %37 = icmp slt i32 %35, %36
  br i1 %37, label %39, label %38

38:                                               ; preds = %34
  store i32 5, ptr %20, align 4
  call void @llvm.lifetime.end.p0(i64 4, ptr %21) #7
  br label %57

39:                                               ; preds = %34
  %40 = load ptr, ptr %17, align 8, !tbaa !70
  %41 = load i32, ptr %21, align 4, !tbaa !29
  %42 = sext i32 %41 to i64
  %43 = getelementptr inbounds i16, ptr %40, i64 %42
  %44 = load i16, ptr %43, align 2, !tbaa !72
  %45 = zext i16 %44 to i32
  %46 = load i32, ptr %15, align 4, !tbaa !29
  %47 = load i32, ptr %16, align 4, !tbaa !29
  %48 = call i32 @av_clip_c(i32 noundef %45, i32 noundef %46, i32 noundef %47) #9
  %49 = trunc i32 %48 to i16
  %50 = load ptr, ptr %18, align 8, !tbaa !70
  %51 = load i32, ptr %21, align 4, !tbaa !29
  %52 = sext i32 %51 to i64
  %53 = getelementptr inbounds i16, ptr %50, i64 %52
  store i16 %49, ptr %53, align 2, !tbaa !72
  br label %54

54:                                               ; preds = %39
  %55 = load i32, ptr %21, align 4, !tbaa !29
  %56 = add nsw i32 %55, 1
  store i32 %56, ptr %21, align 4, !tbaa !29
  br label %34, !llvm.loop !74

57:                                               ; preds = %38
  %58 = load i64, ptr %12, align 8, !tbaa !66
  %59 = load ptr, ptr %18, align 8, !tbaa !70
  %60 = getelementptr inbounds i16, ptr %59, i64 %58
  store ptr %60, ptr %18, align 8, !tbaa !70
  %61 = load i64, ptr %11, align 8, !tbaa !66
  %62 = load ptr, ptr %17, align 8, !tbaa !70
  %63 = getelementptr inbounds i16, ptr %62, i64 %61
  store ptr %63, ptr %17, align 8, !tbaa !70
  br label %64

64:                                               ; preds = %57
  %65 = load i32, ptr %19, align 4, !tbaa !29
  %66 = add nsw i32 %65, 1
  store i32 %66, ptr %19, align 4, !tbaa !29
  br label %28, !llvm.loop !75

67:                                               ; preds = %32
  call void @llvm.lifetime.end.p0(i64 8, ptr %18) #7
  call void @llvm.lifetime.end.p0(i64 8, ptr %17) #7
  ret void
}