; Function Attrs: nofree norecurse nosync nounwind memory(argmem: readwrite) uwtable
define internal void @limiter16(ptr noundef readonly captures(none) %0, ptr noundef writeonly captures(none) %1, i64 noundef %2, i64 noundef %3, i32 noundef %4, i32 noundef %5, i32 noundef %6, i32 noundef %7) #5 {
  %9 = lshr i64 %3, 1
  %10 = lshr i64 %2, 1
  %11 = icmp sgt i32 %5, 0
  %12 = icmp sgt i32 %4, 0
  %or.cond = and i1 %11, %12
  br i1 %or.cond, label %.preheader.us.preheader, label %._crit_edge26

.preheader.us.preheader:                          ; preds = %8
  %wide.trip.count = zext nneg i32 %4 to i64
  br label %.preheader.us

.preheader.us:                                    ; preds = %.preheader.us.preheader, %._crit_edge.us
  %.01925.us = phi i32 [ %22, %._crit_edge.us ], [ 0, %.preheader.us.preheader ]
  %.02024.us = phi ptr [ %20, %._crit_edge.us ], [ %1, %.preheader.us.preheader ]
  %.02123.us = phi ptr [ %21, %._crit_edge.us ], [ %0, %.preheader.us.preheader ]
  br label %13

13:                                               ; preds = %.preheader.us, %13
  %indvars.iv = phi i64 [ 0, %.preheader.us ], [ %indvars.iv.next, %13 ]
  %14 = getelementptr inbounds nuw i16, ptr %.02123.us, i64 %indvars.iv
  %15 = load i16, ptr %14, align 2, !tbaa !61
  %16 = zext i16 %15 to i32
  %17 = icmp sgt i32 %6, %16
  %..i.us = tail call i32 @llvm.smin.i32(i32 %7, i32 %16)
  %.0.i.us = select i1 %17, i32 %6, i32 %..i.us
  %18 = trunc i32 %.0.i.us to i16
  %19 = getelementptr inbounds nuw i16, ptr %.02024.us, i64 %indvars.iv
  store i16 %18, ptr %19, align 2, !tbaa !61
  %indvars.iv.next = add nuw nsw i64 %indvars.iv, 1
  %exitcond.not = icmp eq i64 %indvars.iv.next, %wide.trip.count
  br i1 %exitcond.not, label %._crit_edge.us, label %13, !llvm.loop !63

._crit_edge.us:                                   ; preds = %13
  %20 = getelementptr inbounds nuw i16, ptr %.02024.us, i64 %9
  %21 = getelementptr inbounds nuw i16, ptr %.02123.us, i64 %10
  %22 = add nuw nsw i32 %.01925.us, 1
  %exitcond29.not = icmp eq i32 %22, %5
  br i1 %exitcond29.not, label %._crit_edge26, label %.preheader.us, !llvm.loop !64

._crit_edge26:                                    ; preds = %._crit_edge.us, %8
  ret void
}